target datalayout = "e-m:e-p270:32:32-p271:32:32-p272:64:64-i64:64-i128:128-f80:128-n8:16:32:64-S128"
target triple = "x86_64-pc-linux-gnu"

%struct.kmac_data_st = type { ptr, ptr, %struct.PROV_DIGEST, i64, i64, i64, i32, [672 x i8], [516 x i8] }
%struct.PROV_DIGEST = type { ptr, ptr, ptr }

@.str.2 = private unnamed_addr constant [54 x i8] c"../openssl/providers/implementations/macs/kmac_prov.c\00", align 1
@__func__.right_encode = private unnamed_addr constant [13 x i8] c"right_encode\00", align 1

; Function Attrs: nounwind uwtable
define internal i32 @get_encode_size(i64 noundef %0) #0 {
  %2 = alloca i64, align 8
  %3 = alloca i32, align 4
  %4 = alloca i32, align 4
  store i64 %0, ptr %2, align 8, !tbaa !24
  call void @llvm.lifetime.start.p0(i64 4, ptr %3) #7
  store i32 0, ptr %3, align 4, !tbaa !28
  call void @llvm.lifetime.start.p0(i64 4, ptr %4) #7
  store i32 8, ptr %4, align 4, !tbaa !28
  br label %5

5:                                                ; preds = %14, %1
  %6 = load i64, ptr %2, align 8, !tbaa !24
  %7 = icmp ne i64 %6, 0
  br i1 %7, label %8, label %12

8:                                                ; preds = %5
  %9 = load i32, ptr %3, align 4, !tbaa !28
  %10 = load i32, ptr %4, align 4, !tbaa !28
  %11 = icmp ult i32 %9, %10
  br label %12

12:                                               ; preds = %8, %5
  %13 = phi i1 [ false, %5 ], [ %11, %8 ]
  br i1 %13, label %14, label %19

14:                                               ; preds = %12
  %15 = load i32, ptr %3, align 4, !tbaa !28
  %16 = add i32 %15, 1
  store i32 %16, ptr %3, align 4, !tbaa !28
  %17 = load i64, ptr %2, align 8, !tbaa !24
  %18 = lshr i64 %17, 8
  store i64 %18, ptr %2, align 8, !tbaa !24
  br label %5, !llvm.loop !38

19:                                               ; preds = %12
  %20 = load i32, ptr %3, align 4, !tbaa !28
  %21 = icmp eq i32 %20, 0
  br i1 %21, label %22, label %23

22:                                               ; preds = %19
  store i32 1, ptr %3, align 4, !tbaa !28
  br label %23

23:                                               ; preds = %22, %19
  %24 = load i32, ptr %3, align 4, !tbaa !28
  call void @llvm.lifetime.end.p0(i64 4, ptr %4) #7
  call void @llvm.lifetime.end.p0(i64 4, ptr %3) #7
  ret i32 %24
}

; Function Attrs: nounwind uwtable
define internal i32 @right_encode(ptr noundef %0, i64 noundef %1, ptr noundef %2, i64 noundef %3) #0 {
  %5 = alloca i32, align 4
  %6 = alloca ptr, align 8
  %7 = alloca i64, align 8
  %8 = alloca ptr, align 8
  %9 = alloca i64, align 8
  %10 = alloca i32, align 4
  %11 = alloca i32, align 4
  %12 = alloca i32, align 4
  store ptr %0, ptr %6, align 8, !tbaa !22
  store i64 %1, ptr %7, align 8, !tbaa !24
  store ptr %2, ptr %8, align 8, !tbaa !29
  store i64 %3, ptr %9, align 8, !tbaa !24
  call void @llvm.lifetime.start.p0(i64 4, ptr %10) #7
  %13 = load i64, ptr %9, align 8, !tbaa !24
  %14 = call i32 @get_encode_size(i64 noundef %13)
  store i32 %14, ptr %10, align 4, !tbaa !28
  call void @llvm.lifetime.start.p0(i64 4, ptr %11) #7
  %15 = load i32, ptr %10, align 4, !tbaa !28
  %16 = zext i32 %15 to i64
  %17 = load i64, ptr %7, align 8, !tbaa !24
  %18 = icmp uge i64 %16, %17
  br i1 %18, label %19, label %20

19:                                               ; preds = %4
  call void @ERR_new()
  call void @ERR_set_debug(ptr noundef @.str.2, i32 noundef 538, ptr noundef @__func__.right_encode)
  call void (i32, i32, ptr, ...) @ERR_set_error(i32 noundef 57, i32 noundef 202, ptr noundef null)
  store i32 0, ptr %5, align 4
  store i32 1, ptr %12, align 4
  br label %50

20:                                               ; preds = %4
  %21 = load i32, ptr %10, align 4, !tbaa !28
  %22 = sub i32 %21, 1
  store i32 %22, ptr %11, align 4, !tbaa !28
  br label %23

23:                                               ; preds = %36, %20
  %24 = load i32, ptr %11, align 4, !tbaa !28
  %25 = icmp sge i32 %24, 0
  br i1 %25, label %26, label %39

26:                                               ; preds = %23
  %27 = load i64, ptr %9, align 8, !tbaa !24
  %28 = and i64 %27, 255
  %29 = trunc i64 %28 to i8
  %30 = load ptr, ptr %6, align 8, !tbaa !22
  %31 = load i32, ptr %11, align 4, !tbaa !28
  %32 = sext i32 %31 to i64
  %33 = getelementptr inbounds i8, ptr %30, i64 %32
  store i8 %29, ptr %33, align 1, !tbaa !35
  %34 = load i64, ptr %9, align 8, !tbaa !24
  %35 = lshr i64 %34, 8
  store i64 %35, ptr %9, align 8, !tbaa !24
  br label %36

36:                                               ; preds = %26
  %37 = load i32, ptr %11, align 4, !tbaa !28
  %38 = add nsw i32 %37, -1
  store i32 %38, ptr %11, align 4, !tbaa !28
  br label %23, !llvm.loop !39

39:                                               ; preds = %23
  %40 = load i32, ptr %10, align 4, !tbaa !28
  %41 = trunc i32 %40 to i8
  %42 = load ptr, ptr %6, align 8, !tbaa !22
  %43 = load i32, ptr %10, align 4, !tbaa !28
  %44 = zext i32 %43 to i64
  %45 = getelementptr inbounds nuw i8, ptr %42, i64 %44
  store i8 %41, ptr %45, align 1, !tbaa !35
  %46 = load i32, ptr %10, align 4, !tbaa !28
  %47 = add i32 %46, 1
  %48 = zext i32 %47 to i64
  %49 = load ptr, ptr %8, align 8, !tbaa !29
  store i64 %48, ptr %49, align 8, !tbaa !24
  store i32 1, ptr %5, align 4
  store i32 1, ptr %12, align 4
  br label %50

50:                                               ; preds = %39, %19
  call void @llvm.lifetime.end.p0(i64 4, ptr %11) #7
  call void @llvm.lifetime.end.p0(i64 4, ptr %10) #7
  %51 = load i32, ptr %5, align 4
  ret i32 %51
}

; Function Attrs: nounwind uwtable
define internal i32 @kmac_final(ptr noundef %0, ptr noundef %1, ptr noundef %2, i64 noundef %3) #0 {
  %5 = alloca i32, align 4
  %6 = alloca ptr, align 8
  %7 = alloca ptr, align 8
  %8 = alloca ptr, align 8
  %9 = alloca i64, align 8
  %10 = alloca ptr, align 8
  %11 = alloca ptr, align 8
  %12 = alloca i64, align 8
  %13 = alloca i64, align 8
  %14 = alloca [4 x i8], align 1
  %15 = alloca i32, align 4
  %16 = alloca i32, align 4
  store ptr %0, ptr %6, align 8, !tbaa !3
  store ptr %1, ptr %7, align 8, !tbaa !22
  store ptr %2, ptr %8, align 8, !tbaa !29
  store i64 %3, ptr %9, align 8, !tbaa !24
  call void @llvm.lifetime.start.p0(i64 8, ptr %10) #7
  %17 = load ptr, ptr %6, align 8, !tbaa !3
  store ptr %17, ptr %10, align 8, !tbaa !7
  call void @llvm.lifetime.start.p0(i64 8, ptr %11) #7
  %18 = load ptr, ptr %10, align 8, !tbaa !7
  %19 = getelementptr inbounds nuw %struct.kmac_data_st, ptr %18, i32 0, i32 1
  %20 = load ptr, ptr %19, align 8, !tbaa !17
  store ptr %20, ptr %11, align 8, !tbaa !27
  call void @llvm.lifetime.start.p0(i64 8, ptr %12) #7
  call void @llvm.lifetime.start.p0(i64 8, ptr %13) #7
  call void @llvm.lifetime.start.p0(i64 4, ptr %14) #7
  call void @llvm.lifetime.start.p0(i64 4, ptr %15) #7
  %21 = call i32 @ossl_prov_is_running()
  %22 = icmp ne i32 %21, 0
  br i1 %22, label %24, label %23

23:                                               ; preds = %4
  store i32 0, ptr %5, align 4
  store i32 1, ptr %16, align 4
  br label %63

24:                                               ; preds = %4
  %25 = load ptr, ptr %10, align 8, !tbaa !7
  %26 = getelementptr inbounds nuw %struct.kmac_data_st, ptr %25, i32 0, i32 6
  %27 = load i32, ptr %26, align 8, !tbaa !21
  %28 = icmp ne i32 %27, 0
  br i1 %28, label %29, label %30

29:                                               ; preds = %24
  br label %35

30:                                               ; preds = %24
  %31 = load ptr, ptr %10, align 8, !tbaa !7
  %32 = getelementptr inbounds nuw %struct.kmac_data_st, ptr %31, i32 0, i32 3
  %33 = load i64, ptr %32, align 8, !tbaa !18
  %34 = mul i64 %33, 8
  br label %35

35:                                               ; preds = %30, %29
  %36 = phi i64 [ 0, %29 ], [ %34, %30 ]
  store i64 %36, ptr %12, align 8, !tbaa !24
  %37 = getelementptr inbounds [4 x i8], ptr %14, i64 0, i64 0
  %38 = load i64, ptr %12, align 8, !tbaa !24
  %39 = call i32 @right_encode(ptr noundef %37, i64 noundef 4, ptr noundef %13, i64 noundef %38)
  %40 = icmp ne i32 %39, 0
  br i1 %40, label %41, label %55

41:                                               ; preds = %35
  %42 = load ptr, ptr %11, align 8, !tbaa !27
  %43 = getelementptr inbounds [4 x i8], ptr %14, i64 0, i64 0
  %44 = load i64, ptr %13, align 8, !tbaa !24
  %45 = call i32 @EVP_DigestUpdate(ptr noundef %42, ptr noundef %43, i64 noundef %44)
  %46 = icmp ne i32 %45, 0
  br i1 %46, label %47, label %55

47:                                               ; preds = %41
  %48 = load ptr, ptr %11, align 8, !tbaa !27
  %49 = load ptr, ptr %7, align 8, !tbaa !22
  %50 = load ptr, ptr %10, align 8, !tbaa !7
  %51 = getelementptr inbounds nuw %struct.kmac_data_st, ptr %50, i32 0, i32 3
  %52 = load i64, ptr %51, align 8, !tbaa !18
  %53 = call i32 @EVP_DigestFinalXOF(ptr noundef %48, ptr noundef %49, i64 noundef %52)
  %54 = icmp ne i32 %53, 0
  br label %55

55:                                               ; preds = %47, %41, %35
  %56 = phi i1 [ false, %41 ], [ false, %35 ], [ %54, %47 ]
  %57 = zext i1 %56 to i32
  store i32 %57, ptr %15, align 4, !tbaa !28
  %58 = load ptr, ptr %10, align 8, !tbaa !7
  %59 = getelementptr inbounds nuw %struct.kmac_data_st, ptr %58, i32 0, i32 3
  %60 = load i64, ptr %59, align 8, !tbaa !18
  %61 = load ptr, ptr %8, align 8, !tbaa !29
  store i64 %60, ptr %61, align 8, !tbaa !24
  %62 = load i32, ptr %15, align 4, !tbaa !28
  store i32 %62, ptr %5, align 4
  store i32 1, ptr %16, align 4
  br label %63

63:                                               ; preds = %55, %23
  call void @llvm.lifetime.end.p0(i64 4, ptr %15) #7
  call void @llvm.lifetime.end.p0(i64 4, ptr %14) #7
  call void @llvm.lifetime.end.p0(i64 8, ptr %13) #7
  call void @llvm.lifetime.end.p0(i64 8, ptr %12) #7
  call void @llvm.lifetime.end.p0(i64 8, ptr %11) #7
  call void @llvm.lifetime.end.p0(i64 8, ptr %10) #7
  %64 = load i32, ptr %5, align 4
  ret i32 %64
}