; Function Attrs: nounwind uwtable
define internal range(i32 0, 2) i32 @kmac_final(ptr noundef readonly captures(none) %0, ptr noundef %1, ptr noundef writeonly captures(none) %2, i64 %3) #0 {
  %5 = alloca [4 x i8], align 1
  %6 = getelementptr inbounds nuw i8, ptr %0, i64 8
  %7 = load ptr, ptr %6, align 8, !tbaa !14
  call void @llvm.lifetime.start.p0(i64 4, ptr nonnull %5) #7
  %8 = tail call i32 @ossl_prov_is_running() #7
  %.not = icmp eq i32 %8, 0
  br i1 %.not, label %46, label %9

9:                                                ; preds = %4
  %10 = getelementptr inbounds nuw i8, ptr %0, i64 64
  %11 = load i32, ptr %10, align 8, !tbaa !18
  %.not12 = icmp eq i32 %11, 0
  br i1 %.not12, label %12, label %.preheader.preheader.i

12:                                               ; preds = %9
  %13 = getelementptr inbounds nuw i8, ptr %0, i64 40
  %14 = load i64, ptr %13, align 8, !tbaa !17
  %15 = shl i64 %14, 3
  %.not.i.i = icmp eq i64 %15, 0
  br i1 %.not.i.i, label %.preheader.preheader.i, label %.lr.ph.i.i

.lr.ph.i.i:                                       ; preds = %12, %.lr.ph.i.i
  %.09.i.i = phi i64 [ %17, %.lr.ph.i.i ], [ %15, %12 ]
  %.078.i.i = phi i32 [ %16, %.lr.ph.i.i ], [ 0, %12 ]
  %16 = add nuw nsw i32 %.078.i.i, 1
  %17 = lshr i64 %.09.i.i, 8
  %18 = icmp ugt i64 %.09.i.i, 255
  %19 = icmp samesign ult i32 %.078.i.i, 7
  %20 = select i1 %18, i1 %19, i1 false
  br i1 %20, label %.lr.ph.i.i, label %get_encode_size.exit.i, !llvm.loop !21

get_encode_size.exit.i:                           ; preds = %.lr.ph.i.i
  %21 = zext nneg i32 %16 to i64
  %22 = icmp samesign ugt i32 %.078.i.i, 2
  br i1 %22, label %right_encode.exit.thread, label %.preheader.preheader.i

.preheader.preheader.i:                           ; preds = %9, %get_encode_size.exit.i, %12
  %23 = phi i64 [ %15, %get_encode_size.exit.i ], [ 0, %12 ], [ 0, %9 ]
  %24 = phi i64 [ %21, %get_encode_size.exit.i ], [ 1, %12 ], [ 1, %9 ]
  %spec.store.select.i23.i = phi i32 [ %16, %get_encode_size.exit.i ], [ 1, %12 ], [ 1, %9 ]
  %.07.lcssa.i22.i = phi i32 [ %16, %get_encode_size.exit.i ], [ 0, %12 ], [ 0, %9 ]
  %25 = tail call i32 @llvm.umax.i32(i32 %.07.lcssa.i22.i, i32 1)
  %umax.i = zext nneg i32 %25 to i64
  br label %.preheader.i

right_encode.exit.thread:                         ; preds = %get_encode_size.exit.i
  tail call void @ERR_new() #7
  tail call void @ERR_set_debug(ptr noundef nonnull @.str.2, i32 noundef 538, ptr noundef nonnull @__func__.right_encode) #7
  tail call void (i32, i32, ptr, ...) @ERR_set_error(i32 noundef 57, i32 noundef 202, ptr noundef null) #7
  br label %42

.preheader.i:                                     ; preds = %.preheader.i, %.preheader.preheader.i
  %indvars.iv.i = phi i64 [ %umax.i, %.preheader.preheader.i ], [ %indvars.iv.next.i, %.preheader.i ]
  %.01618.i = phi i64 [ %23, %.preheader.preheader.i ], [ %28, %.preheader.i ]
  %indvars.iv.next.i = add nsw i64 %indvars.iv.i, -1
  %26 = trunc i64 %.01618.i to i8
  %27 = getelementptr inbounds nuw i8, ptr %5, i64 %indvars.iv.next.i
  store i8 %26, ptr %27, align 1, !tbaa !20
  %28 = lshr i64 %.01618.i, 8
  %29 = icmp samesign ugt i64 %indvars.iv.i, 1
  br i1 %29, label %.preheader.i, label %30, !llvm.loop !23

30:                                               ; preds = %.preheader.i
  %31 = trunc nuw i32 %spec.store.select.i23.i to i8
  %32 = getelementptr inbounds nuw i8, ptr %5, i64 %24
  store i8 %31, ptr %32, align 1, !tbaa !20
  %33 = add nuw nsw i32 %spec.store.select.i23.i, 1
  %34 = zext nneg i32 %33 to i64
  %35 = call i32 @EVP_DigestUpdate(ptr noundef %7, ptr noundef nonnull %5, i64 noundef %34) #7
  %.not14 = icmp eq i32 %35, 0
  br i1 %.not14, label %42, label %36

36:                                               ; preds = %30
  %37 = getelementptr inbounds nuw i8, ptr %0, i64 40
  %38 = load i64, ptr %37, align 8, !tbaa !17
  %39 = call i32 @EVP_DigestFinalXOF(ptr noundef %7, ptr noundef %1, i64 noundef %38) #7
  %40 = icmp ne i32 %39, 0
  %41 = zext i1 %40 to i32
  br label %42

42:                                               ; preds = %right_encode.exit.thread, %36, %30
  %43 = phi i32 [ 0, %30 ], [ %41, %36 ], [ 0, %right_encode.exit.thread ]
  %44 = getelementptr inbounds nuw i8, ptr %0, i64 40
  %45 = load i64, ptr %44, align 8, !tbaa !17
  store i64 %45, ptr %2, align 8, !tbaa !24
  br label %46

46:                                               ; preds = %4, %42
  %.0 = phi i32 [ %43, %42 ], [ 0, %4 ]
  call void @llvm.lifetime.end.p0(i64 4, ptr nonnull %5) #7
  ret i32 %.0
}